; ModuleID = '17/994.c'
source_filename = "17/994.c"
target datalayout = "e-m:e-p270:32:32-p271:32:32-p272:64:64-i64:64-f80:128-n8:16:32:64-S128"
target triple = "x86_64-pc-linux-gnu"

@.str = private unnamed_addr constant [3 x i8] c"%s\00", align 1
@.str.1 = private unnamed_addr constant [3 x i8] c"%c\00", align 1
@.str.2 = private unnamed_addr constant [2 x i8] c"\0A\00", align 1

; Function Attrs: noinline nounwind uwtable
define dso_local i32 @main() #0 {
  %1 = alloca i32, align 4
  %2 = alloca i32, align 4
  %3 = alloca i32, align 4
  %4 = alloca i32, align 4
  %5 = alloca [150 x i8], align 16
  %6 = alloca [150 x i8], align 16
  store i32 0, i32* %1, align 4
  %7 = bitcast [150 x i8]* %5 to i8*
  call void @llvm.memset.p0i8.i64(i8* align 16 %7, i8 0, i64 150, i1 false)
  %8 = bitcast i8* %7 to <{ i8, [149 x i8] }>*
  %9 = getelementptr inbounds <{ i8, [149 x i8] }>, <{ i8, [149 x i8] }>* %8, i32 0, i32 0
  store i8 48, i8* %9, align 16
  %10 = bitcast [150 x i8]* %6 to i8*
  call void @llvm.memset.p0i8.i64(i8* align 16 %10, i8 0, i64 150, i1 false)
  %11 = bitcast i8* %10 to <{ i8, [149 x i8] }>*
  %12 = getelementptr inbounds <{ i8, [149 x i8] }>, <{ i8, [149 x i8] }>* %11, i32 0, i32 0
  store i8 48, i8* %12, align 16
  br label %13

13:                                               ; preds = %127, %0
  %14 = call i32 (i8*, ...) @__isoc99_scanf(i8* getelementptr inbounds ([3 x i8], [3 x i8]* @.str, i64 0, i64 0), [150 x i8]* %5)
  %15 = xor i32 %14, -1
  %16 = icmp ne i32 %15, 0
  br i1 %16, label %17, label %129

17:                                               ; preds = %13
  %18 = getelementptr inbounds [150 x i8], [150 x i8]* %5, i64 0, i64 0
  %19 = call i64 @strlen(i8* %18) #4
  %20 = trunc i64 %19 to i32
  store i32 %20, i32* %2, align 4
  store i32 0, i32* %3, align 4
  br label %21

21:                                               ; preds = %53, %17
  %22 = load i32, i32* %3, align 4
  %23 = load i32, i32* %2, align 4
  %24 = icmp slt i32 %22, %23
  br i1 %24, label %25, label %56

25:                                               ; preds = %21
  %26 = load i32, i32* %3, align 4
  %27 = sext i32 %26 to i64
  %28 = getelementptr inbounds [150 x i8], [150 x i8]* %5, i64 0, i64 %27
  %29 = load i8, i8* %28, align 1
  %30 = sext i8 %29 to i32
  %31 = icmp eq i32 %30, 40
  br i1 %31, label %32, label %36

32:                                               ; preds = %25
  %33 = load i32, i32* %3, align 4
  %34 = sext i32 %33 to i64
  %35 = getelementptr inbounds [150 x i8], [150 x i8]* %6, i64 0, i64 %34
  store i8 36, i8* %35, align 1
  br label %52

36:                                               ; preds = %25
  %37 = load i32, i32* %3, align 4
  %38 = sext i32 %37 to i64
  %39 = getelementptr inbounds [150 x i8], [150 x i8]* %5, i64 0, i64 %38
  %40 = load i8, i8* %39, align 1
  %41 = sext i8 %40 to i32
  %42 = icmp eq i32 %41, 41
  br i1 %42, label %43, label %47

43:                                               ; preds = %36
  %44 = load i32, i32* %3, align 4
  %45 = sext i32 %44 to i64
  %46 = getelementptr inbounds [150 x i8], [150 x i8]* %6, i64 0, i64 %45
  store i8 63, i8* %46, align 1
  br label %51

47:                                               ; preds = %36
  %48 = load i32, i32* %3, align 4
  %49 = sext i32 %48 to i64
  %50 = getelementptr inbounds [150 x i8], [150 x i8]* %6, i64 0, i64 %49
  store i8 32, i8* %50, align 1
  br label %51

51:                                               ; preds = %47, %43
  br label %52

52:                                               ; preds = %51, %32
  br label %53

53:                                               ; preds = %52
  %54 = load i32, i32* %3, align 4
  %55 = add nsw i32 %54, 1
  store i32 %55, i32* %3, align 4
  br label %21

56:                                               ; preds = %21
  store i32 0, i32* %3, align 4
  br label %57

57:                                               ; preds = %93, %56
  %58 = load i32, i32* %3, align 4
  %59 = load i32, i32* %2, align 4
  %60 = icmp slt i32 %58, %59
  br i1 %60, label %61, label %96

61:                                               ; preds = %57
  %62 = load i32, i32* %3, align 4
  %63 = sub nsw i32 %62, 1
  store i32 %63, i32* %4, align 4
  br label %64

64:                                               ; preds = %89, %61
  %65 = load i32, i32* %4, align 4
  %66 = icmp sge i32 %65, 0
  br i1 %66, label %67, label %92

67:                                               ; preds = %64
  %68 = load i32, i32* %4, align 4
  %69 = sext i32 %68 to i64
  %70 = getelementptr inbounds [150 x i8], [150 x i8]* %6, i64 0, i64 %69
  %71 = load i8, i8* %70, align 1
  %72 = sext i8 %71 to i32
  %73 = icmp eq i32 %72, 36
  br i1 %73, label %74, label %88

74:                                               ; preds = %67
  %75 = load i32, i32* %3, align 4
  %76 = sext i32 %75 to i64
  %77 = getelementptr inbounds [150 x i8], [150 x i8]* %6, i64 0, i64 %76
  %78 = load i8, i8* %77, align 1
  %79 = sext i8 %78 to i32
  %80 = icmp eq i32 %79, 63
  br i1 %80, label %81, label %88

81:                                               ; preds = %74
  %82 = load i32, i32* %4, align 4
  %83 = sext i32 %82 to i64
  %84 = getelementptr inbounds [150 x i8], [150 x i8]* %6, i64 0, i64 %83
  store i8 32, i8* %84, align 1
  %85 = load i32, i32* %3, align 4
  %86 = sext i32 %85 to i64
  %87 = getelementptr inbounds [150 x i8], [150 x i8]* %6, i64 0, i64 %86
  store i8 32, i8* %87, align 1
  br label %88

88:                                               ; preds = %81, %74, %67
  br label %89

89:                                               ; preds = %88
  %90 = load i32, i32* %4, align 4
  %91 = add nsw i32 %90, -1
  store i32 %91, i32* %4, align 4
  br label %64

92:                                               ; preds = %64
  br label %93

93:                                               ; preds = %92
  %94 = load i32, i32* %3, align 4
  %95 = add nsw i32 %94, 1
  store i32 %95, i32* %3, align 4
  br label %57

96:                                               ; preds = %57
  store i32 0, i32* %4, align 4
  br label %97

97:                                               ; preds = %108, %96
  %98 = load i32, i32* %4, align 4
  %99 = load i32, i32* %2, align 4
  %100 = icmp slt i32 %98, %99
  br i1 %100, label %101, label %111

101:                                              ; preds = %97
  %102 = load i32, i32* %4, align 4
  %103 = sext i32 %102 to i64
  %104 = getelementptr inbounds [150 x i8], [150 x i8]* %5, i64 0, i64 %103
  %105 = load i8, i8* %104, align 1
  %106 = sext i8 %105 to i32
  %107 = call i32 (i8*, ...) @printf(i8* getelementptr inbounds ([3 x i8], [3 x i8]* @.str.1, i64 0, i64 0), i32 %106)
  br label %108

108:                                              ; preds = %101
  %109 = load i32, i32* %4, align 4
  %110 = add nsw i32 %109, 1
  store i32 %110, i32* %4, align 4
  br label %97

111:                                              ; preds = %97
  %112 = call i32 (i8*, ...) @printf(i8* getelementptr inbounds ([2 x i8], [2 x i8]* @.str.2, i64 0, i64 0))
  store i32 0, i32* %4, align 4
  br label %113

113:                                              ; preds = %124, %111
  %114 = load i32, i32* %4, align 4
  %115 = load i32, i32* %2, align 4
  %116 = icmp slt i32 %114, %115
  br i1 %116, label %117, label %127

117:                                              ; preds = %113
  %118 = load i32, i32* %4, align 4
  %119 = sext i32 %118 to i64
  %120 = getelementptr inbounds [150 x i8], [150 x i8]* %6, i64 0, i64 %119
  %121 = load i8, i8* %120, align 1
  %122 = sext i8 %121 to i32
  %123 = call i32 (i8*, ...) @printf(i8* getelementptr inbounds ([3 x i8], [3 x i8]* @.str.1, i64 0, i64 0), i32 %122)
  br label %124

124:                                              ; preds = %117
  %125 = load i32, i32* %4, align 4
  %126 = add nsw i32 %125, 1
  store i32 %126, i32* %4, align 4
  br label %113

127:                                              ; preds = %113
  %128 = call i32 (i8*, ...) @printf(i8* getelementptr inbounds ([2 x i8], [2 x i8]* @.str.2, i64 0, i64 0))
  br label %13

129:                                              ; preds = %13
  ret i32 0
}

; Function Attrs: argmemonly nounwind willreturn
declare void @llvm.memset.p0i8.i64(i8* nocapture writeonly, i8, i64, i1 immarg) #1

declare dso_local i32 @__isoc99_scanf(i8*, ...) #2

; Function Attrs: nounwind readonly
declare dso_local i64 @strlen(i8*) #3

declare dso_local i32 @printf(i8*, ...) #2


!llvm.module.flags = !{!0}
!llvm.ident = !{!1}

!0 = !{i32 1, !"wchar_size", i32 4}
!1 = !{!"clang version 10.0.0-4ubuntu1 "}
